target datalayout = "e-m:e-p270:32:32-p271:32:32-p272:64:64-i64:64-i128:128-f80:128-n8:16:32:64-S128"
target triple = "x86_64-pc-linux-gnu"

@.str.558 = private unnamed_addr constant [6 x i8] c"Topic\00", align 1
@ett_kafka_topic = internal global i32 0, align 4
@ett_kafka_partitions = internal global i32 0, align 4
@.str.671 = private unnamed_addr constant [11 x i8] c"Partitions\00", align 1

; Function Attrs: null_pointer_is_valid sspstrong uwtable
define internal i32 @dissect_kafka_elect_leaders_request_topic(ptr noundef %0, ptr noundef %1, ptr noundef %2, i32 noundef %3, i16 noundef signext %4) #0 {
  %6 = alloca ptr, align 8
  %7 = alloca ptr, align 8
  %8 = alloca ptr, align 8
  %9 = alloca i32, align 4
  %10 = alloca i16, align 2
  %11 = alloca ptr, align 8
  %12 = alloca ptr, align 8
  %13 = alloca ptr, align 8
  %14 = alloca ptr, align 8
  store ptr %0, ptr %6, align 8
  store ptr %1, ptr %7, align 8
  store ptr %2, ptr %8, align 8
  store i32 %3, ptr %9, align 4
  store i16 %4, ptr %10, align 2
  call void @llvm.lifetime.start.p0(i64 8, ptr %11) #12
  call void @llvm.lifetime.start.p0(i64 8, ptr %12) #12
  call void @llvm.lifetime.start.p0(i64 8, ptr %13) #12
  call void @llvm.lifetime.start.p0(i64 8, ptr %14) #12
  %15 = load ptr, ptr %8, align 8
  %16 = load ptr, ptr %6, align 8
  %17 = load i32, ptr %9, align 4
  %18 = load i32, ptr @ett_kafka_topic, align 4
  %19 = call ptr @proto_tree_add_subtree(ptr noundef %15, ptr noundef %16, i32 noundef %17, i32 noundef -1, i32 noundef %18, ptr noundef %11, ptr noundef @.str.558)
  store ptr %19, ptr %13, align 8
  %20 = load ptr, ptr %13, align 8
  %21 = load ptr, ptr %6, align 8
  %22 = load i32, ptr %9, align 4
  %23 = load i32, ptr @ett_kafka_partitions, align 4
  %24 = call ptr @proto_tree_add_subtree(ptr noundef %20, ptr noundef %21, i32 noundef %22, i32 noundef -1, i32 noundef %23, ptr noundef %12, ptr noundef @.str.671)
  store ptr %24, ptr %14, align 8
  %25 = load ptr, ptr %14, align 8
  %26 = load ptr, ptr %6, align 8
  %27 = load ptr, ptr %7, align 8
  %28 = load i32, ptr %9, align 4
  %29 = load i16, ptr %10, align 2
  %30 = sext i16 %29 to i32
  %31 = icmp sge i32 %30, 2
  %32 = zext i1 %31 to i32
  %33 = load i16, ptr %10, align 2
  %34 = call i32 @dissect_kafka_array(ptr noundef %25, ptr noundef %26, ptr noundef %27, i32 noundef %28, i32 noundef %32, i16 noundef signext %33, ptr noundef @dissect_kafka_elect_leaders_request_partition, ptr noundef null)
  store i32 %34, ptr %9, align 4
  %35 = load ptr, ptr %12, align 8
  %36 = load ptr, ptr %6, align 8
  %37 = load i32, ptr %9, align 4
  call void @proto_item_set_end(ptr noundef %35, ptr noundef %36, i32 noundef %37)
  %38 = load i16, ptr %10, align 2
  %39 = sext i16 %38 to i32
  %40 = icmp sge i32 %39, 2
  br i1 %40, label %41, label %47

41:                                               ; preds = %5
  %42 = load ptr, ptr %6, align 8
  %43 = load ptr, ptr %7, align 8
  %44 = load ptr, ptr %13, align 8
  %45 = load i32, ptr %9, align 4
  %46 = call i32 @dissect_kafka_tagged_fields(ptr noundef %42, ptr noundef %43, ptr noundef %44, i32 noundef %45, i16 noundef signext 0)
  store i32 %46, ptr %9, align 4
  br label %47

47:                                               ; preds = %41, %5
  %48 = load ptr, ptr %11, align 8
  %49 = load ptr, ptr %6, align 8
  %50 = load i32, ptr %9, align 4
  call void @proto_item_set_end(ptr noundef %48, ptr noundef %49, i32 noundef %50)
  %51 = load i32, ptr %9, align 4
  call void @llvm.lifetime.end.p0(i64 8, ptr %14) #12
  call void @llvm.lifetime.end.p0(i64 8, ptr %13) #12
  call void @llvm.lifetime.end.p0(i64 8, ptr %12) #12
  call void @llvm.lifetime.end.p0(i64 8, ptr %11) #12
  ret i32 %51
}