; Function Attrs: null_pointer_is_valid sspstrong uwtable
define internal noundef i32 @dissect_kafka_elect_leaders_request_topic(ptr noundef %0, ptr noundef %1, ptr noundef %2, i32 noundef %3, i16 noundef signext %4) #0 {
  %6 = alloca ptr, align 8
  %7 = alloca ptr, align 8
  call void @llvm.lifetime.start.p0(i64 8, ptr nonnull %6) #9
  call void @llvm.lifetime.start.p0(i64 8, ptr nonnull %7) #9
  %8 = load i32, ptr @ett_kafka_topic, align 4
  %9 = call ptr @proto_tree_add_subtree(ptr noundef %2, ptr noundef %0, i32 noundef %3, i32 noundef -1, i32 noundef %8, ptr noundef nonnull %6, ptr noundef nonnull @.str.558)
  %10 = load i32, ptr @ett_kafka_partitions, align 4
  %11 = call ptr @proto_tree_add_subtree(ptr noundef %9, ptr noundef %0, i32 noundef %3, i32 noundef -1, i32 noundef %10, ptr noundef nonnull %7, ptr noundef nonnull @.str.671)
  %12 = icmp sgt i16 %4, 1
  %13 = zext i1 %12 to i32
  %14 = call fastcc i32 @dissect_kafka_array(ptr noundef %11, ptr noundef %0, ptr noundef %1, i32 noundef %3, i32 noundef %13, i16 noundef signext %4, ptr noundef nonnull @dissect_kafka_elect_leaders_request_partition, ptr noundef null)
  %15 = load ptr, ptr %7, align 8
  call void @proto_item_set_end(ptr noundef %15, ptr noundef %0, i32 noundef %14)
  br i1 %12, label %16, label %18

16:                                               ; preds = %5
  %17 = call fastcc i32 @dissect_kafka_tagged_fields(ptr noundef %0, ptr noundef %1, ptr noundef %9, i32 noundef %14)
  br label %18

18:                                               ; preds = %16, %5
  %.0 = phi i32 [ %17, %16 ], [ %14, %5 ]
  %19 = load ptr, ptr %6, align 8
  call void @proto_item_set_end(ptr noundef %19, ptr noundef %0, i32 noundef %.0)
  call void @llvm.lifetime.end.p0(i64 8, ptr nonnull %7) #9
  call void @llvm.lifetime.end.p0(i64 8, ptr nonnull %6) #9
  ret i32 %.0
}